; Function Attrs: nounwind uwtable
define dso_local noundef i32 @_ZThn88_N4node15LibuvStreamWrap10DoTryWriteEPP8uv_buf_tPm(ptr nocapture noundef readonly %this, ptr nocapture noundef %bufs, ptr nocapture noundef %count) unnamed_addr #6 align 2 {
entry:
  %0 = load ptr, ptr %bufs, align 8
  %1 = load i64, ptr %count, align 8
  %stream_.i.i = getelementptr inbounds i8, ptr %this, i64 64
  %2 = load ptr, ptr %stream_.i.i, align 8
  %conv.i = trunc i64 %1 to i32
  %call2.i = tail call i32 @uv_try_write(ptr noundef %2, ptr noundef %0, i32 noundef %conv.i) #17
  switch i32 %call2.i, label %if.end.i [
    i32 -11, label %_ZN4node15LibuvStreamWrap10DoTryWriteEPP8uv_buf_tPm.exit
    i32 -38, label %_ZN4node15LibuvStreamWrap10DoTryWriteEPP8uv_buf_tPm.exit
  ]

if.end.i:                                         ; preds = %entry
  %cmp4.i = icmp slt i32 %call2.i, 0
  br i1 %cmp4.i, label %_ZN4node15LibuvStreamWrap10DoTryWriteEPP8uv_buf_tPm.exit, label %if.end6.i

if.end6.i:                                        ; preds = %if.end.i
  %cmp8.not25.i = icmp eq i64 %1, 0
  br i1 %cmp8.not25.i, label %for.end.i, label %for.body.preheader.i

for.body.preheader.i:                             ; preds = %if.end6.i
  %conv7.i = zext nneg i32 %call2.i to i64
  %3 = shl i64 %1, 4
  %scevgep.i = getelementptr i8, ptr %0, i64 %3
  br label %for.body.i

for.body.i:                                       ; preds = %if.else.i, %for.body.preheader.i
  %vcount.028.i = phi i64 [ %dec.i, %if.else.i ], [ %1, %for.body.preheader.i ]
  %vbufs.027.i = phi ptr [ %incdec.ptr.i, %if.else.i ], [ %0, %for.body.preheader.i ]
  %written.026.i = phi i64 [ %sub16.i, %if.else.i ], [ %conv7.i, %for.body.preheader.i ]
  %len.i = getelementptr inbounds i8, ptr %vbufs.027.i, i64 8
  %4 = load i64, ptr %len.i, align 8
  %cmp9.i = icmp ugt i64 %4, %written.026.i
  br i1 %cmp9.i, label %if.then10.i, label %if.else.i

if.then10.i:                                      ; preds = %for.body.i
  %len.i.le = getelementptr inbounds i8, ptr %vbufs.027.i, i64 8
  %5 = load ptr, ptr %vbufs.027.i, align 8
  %add.ptr.i = getelementptr inbounds i8, ptr %5, i64 %written.026.i
  store ptr %add.ptr.i, ptr %vbufs.027.i, align 8
  %sub.i = sub i64 %4, %written.026.i
  store i64 %sub.i, ptr %len.i.le, align 8
  br label %for.end.i

if.else.i:                                        ; preds = %for.body.i
  %sub16.i = sub i64 %written.026.i, %4
  %incdec.ptr.i = getelementptr inbounds i8, ptr %vbufs.027.i, i64 16
  %dec.i = add i64 %vcount.028.i, -1
  %cmp8.not.i = icmp eq i64 %dec.i, 0
  br i1 %cmp8.not.i, label %for.end.i, label %for.body.i, !llvm.loop !5

for.end.i:                                        ; preds = %if.else.i, %if.then10.i, %if.end6.i
  %vbufs.022.i = phi ptr [ %vbufs.027.i, %if.then10.i ], [ %0, %if.end6.i ], [ %scevgep.i, %if.else.i ]
  %vcount.020.i = phi i64 [ %vcount.028.i, %if.then10.i ], [ 0, %if.end6.i ], [ 0, %if.else.i ]
  store ptr %vbufs.022.i, ptr %bufs, align 8
  store i64 %vcount.020.i, ptr %count, align 8
  br label %_ZN4node15LibuvStreamWrap10DoTryWriteEPP8uv_buf_tPm.exit

_ZN4node15LibuvStreamWrap10DoTryWriteEPP8uv_buf_tPm.exit: ; preds = %entry, %entry, %if.end.i, %for.end.i
  %retval.0.i = phi i32 [ 0, %for.end.i ], [ 0, %entry ], [ 0, %entry ], [ %call2.i, %if.end.i ]
  ret i32 %retval.0.i
}